target datalayout = "e-m:e-p270:32:32-p271:32:32-p272:64:64-i64:64-i128:128-f80:128-n8:16:32:64-S128"
target triple = "x86_64-unknown-linux-gnu"

%"class.google::protobuf::util::SimpleFieldComparator" = type { %"class.google::protobuf::util::FieldComparator", i32, i8, i8, %"struct.google::protobuf::util::SimpleFieldComparator::Tolerance", %"class.absl::lts_20230802::flat_hash_map" }
%"class.google::protobuf::util::FieldComparator" = type { ptr }
%"struct.google::protobuf::util::SimpleFieldComparator::Tolerance" = type { double, double }
%"class.absl::lts_20230802::flat_hash_map" = type { %"class.absl::lts_20230802::container_internal::raw_hash_map" }
%"class.absl::lts_20230802::container_internal::raw_hash_map" = type { %"class.absl::lts_20230802::container_internal::raw_hash_set" }
%"class.absl::lts_20230802::container_internal::raw_hash_set" = type { %"class.absl::lts_20230802::container_internal::CompressedTuple" }
%"class.absl::lts_20230802::container_internal::CompressedTuple" = type { %"struct.absl::lts_20230802::container_internal::internal_compressed_tuple::CompressedTupleImpl" }
%"struct.absl::lts_20230802::container_internal::internal_compressed_tuple::CompressedTupleImpl" = type { %"struct.absl::lts_20230802::container_internal::internal_compressed_tuple::Storage" }
%"struct.absl::lts_20230802::container_internal::internal_compressed_tuple::Storage" = type { %"class.absl::lts_20230802::container_internal::CommonFields" }
%"class.absl::lts_20230802::container_internal::CommonFields" = type { ptr, ptr, i64, %"class.absl::lts_20230802::container_internal::CompressedTuple.0" }
%"class.absl::lts_20230802::container_internal::CompressedTuple.0" = type { %"struct.absl::lts_20230802::container_internal::internal_compressed_tuple::CompressedTupleImpl.1" }
%"struct.absl::lts_20230802::container_internal::internal_compressed_tuple::CompressedTupleImpl.1" = type { %"struct.absl::lts_20230802::container_internal::internal_compressed_tuple::Storage.2" }
%"struct.absl::lts_20230802::container_internal::internal_compressed_tuple::Storage.2" = type { i64 }

; Function Attrs: mustprogress nounwind uwtable
define linkonce_odr hidden void @_ZN6google8protobuf4util21SimpleFieldComparator9ToleranceC2Edd(ptr noundef nonnull align 8 dereferenceable(16) %this, double noundef %f, double noundef %m) unnamed_addr #4 comdat align 2 {
entry:
  %this.addr = alloca ptr, align 8
  %f.addr = alloca double, align 8
  %m.addr = alloca double, align 8
  store ptr %this, ptr %this.addr, align 8
  store double %f, ptr %f.addr, align 8
  store double %m, ptr %m.addr, align 8
  %this1 = load ptr, ptr %this.addr, align 8
  %fraction = getelementptr inbounds %"struct.google::protobuf::util::SimpleFieldComparator::Tolerance", ptr %this1, i32 0, i32 0
  %0 = load double, ptr %f.addr, align 8
  store double %0, ptr %fraction, align 8
  %margin = getelementptr inbounds %"struct.google::protobuf::util::SimpleFieldComparator::Tolerance", ptr %this1, i32 0, i32 1
  %1 = load double, ptr %m.addr, align 8
  store double %1, ptr %margin, align 8
  ret void
}

; Function Attrs: mustprogress uwtable
define void @_ZN6google8protobuf4util21SimpleFieldComparator27SetDefaultFractionAndMarginEdd(ptr noundef nonnull align 8 dereferenceable(64) %this, double noundef %fraction, double noundef %margin) #6 align 2 {
entry:
  %this.addr = alloca ptr, align 8
  %fraction.addr = alloca double, align 8
  %margin.addr = alloca double, align 8
  %ref.tmp = alloca %"struct.google::protobuf::util::SimpleFieldComparator::Tolerance", align 8
  store ptr %this, ptr %this.addr, align 8
  store double %fraction, ptr %fraction.addr, align 8
  store double %margin, ptr %margin.addr, align 8
  %this1 = load ptr, ptr %this.addr, align 8
  %0 = load double, ptr %fraction.addr, align 8
  %1 = load double, ptr %margin.addr, align 8
  call void @_ZN6google8protobuf4util21SimpleFieldComparator9ToleranceC2Edd(ptr noundef nonnull align 8 dereferenceable(16) %ref.tmp, double noundef %0, double noundef %1)
  %default_tolerance_ = getelementptr inbounds %"class.google::protobuf::util::SimpleFieldComparator", ptr %this1, i32 0, i32 4
  call void @llvm.memcpy.p0.p0.i64(ptr align 8 %default_tolerance_, ptr align 8 %ref.tmp, i64 16, i1 false)
  %has_default_tolerance_ = getelementptr inbounds %"class.google::protobuf::util::SimpleFieldComparator", ptr %this1, i32 0, i32 3
  store i8 1, ptr %has_default_tolerance_, align 1
  ret void
}