; Function Attrs: mustprogress nofree norecurse nosync nounwind willreturn memory(argmem: write) uwtable
define void @_ZN6google8protobuf4util21SimpleFieldComparator27SetDefaultFractionAndMarginEdd(ptr nocapture noundef nonnull writeonly align 8 dereferenceable(64) %this, double noundef %fraction, double noundef %margin) local_unnamed_addr #3 align 2 {
entry:
  %default_tolerance_ = getelementptr inbounds i8, ptr %this, i64 16
  store double %fraction, ptr %default_tolerance_, align 8
  %ref.tmp.sroa.2.0.default_tolerance_.sroa_idx = getelementptr inbounds i8, ptr %this, i64 24
  store double %margin, ptr %ref.tmp.sroa.2.0.default_tolerance_.sroa_idx, align 8
  %has_default_tolerance_ = getelementptr inbounds i8, ptr %this, i64 13
  store i8 1, ptr %has_default_tolerance_, align 1
  ret void
}